(lp0
(lp1
Vaddad
p2
aI322
aa(lp3
Vraww
p4
aI180
aa(lp5
Vjeffrey
p6
aI176
aa(lp7
Vspencer
p8
aI110
aa(lp9
Vsdsdfsdf
p10
aI94
aa(lp11
Vdaniel
p12
aI92
aa(lp13
Vdwdwadwdwd
p14
aI64
aa(lp15
VAbizzz
p16
aI63
aa(lp17
Vaidan
p18
aI60
aa(lp19
Valams
p20
aI52
aa(lp21
Vfred
p22
aI52
aa(lp23
Vjim
p24
aI52
aa(lp25
VDevin
p26
aI45
aa(lp27
Vhamza
p28
aI36
aa(lp29
Vams
p30
aI34
aa(lp31
Vhubby
p32
aI31
aa(lp33
Vhalf
p34
aI26
aa(lp35
Vrand
p36
aI25
aa.